; Function Attrs: nounwind sspstrong uwtable
define dso_local zeroext i1 @visit_policy_skip(ptr noundef %v, ptr noundef %name, i32 noundef %special_features) local_unnamed_addr #0 {
entry:
  %_now.i.i = alloca %struct.timeval, align 8
  call void @llvm.lifetime.start.p0(i64 16, ptr nonnull %_now.i.i)
  %0 = load i32, ptr @trace_events_enabled_count, align 4
  %tobool.i.i = icmp ne i32 %0, 0
  %1 = load i16, ptr @_TRACE_VISIT_POLICY_SKIP_DSTATE, align 2
  %tobool4.i.i = icmp ne i16 %1, 0
  %or.cond.i.i = select i1 %tobool.i.i, i1 %tobool4.i.i, i1 false
  br i1 %or.cond.i.i, label %land.lhs.true5.i.i, label %trace_visit_policy_skip.exit

land.lhs.true5.i.i:                               ; preds = %entry
  %2 = load i32, ptr @qemu_loglevel, align 4
  %and.i.i.i = and i32 %2, 32768
  %cmp.i.not.i.i = icmp eq i32 %and.i.i.i, 0
  br i1 %cmp.i.not.i.i, label %trace_visit_policy_skip.exit, label %if.then.i.i

if.then.i.i:                                      ; preds = %land.lhs.true5.i.i
  %3 = load i8, ptr @message_with_timestamp, align 1
  %tobool7.i.i = trunc i8 %3 to i1
  br i1 %tobool7.i.i, label %if.then8.i.i, label %if.else.i.i

if.then8.i.i:                                     ; preds = %if.then.i.i
  %call9.i.i = call i32 @gettimeofday(ptr noundef nonnull %_now.i.i, ptr noundef null) #10
  %call10.i.i = tail call i32 @qemu_get_thread_id() #10
  %4 = load i64, ptr %_now.i.i, align 8
  %tv_usec.i.i = getelementptr inbounds nuw i8, ptr %_now.i.i, i64 8
  %5 = load i64, ptr %tv_usec.i.i, align 8
  tail call void (ptr, ...) @qemu_log(ptr noundef nonnull @.str.45, i32 noundef %call10.i.i, i64 noundef %4, i64 noundef %5, ptr noundef %v, ptr noundef %name) #10
  br label %trace_visit_policy_skip.exit

if.else.i.i:                                      ; preds = %if.then.i.i
  tail call void (ptr, ...) @qemu_log(ptr noundef nonnull @.str.46, ptr noundef %v, ptr noundef %name) #10
  br label %trace_visit_policy_skip.exit

trace_visit_policy_skip.exit:                     ; preds = %entry, %land.lhs.true5.i.i, %if.then8.i.i, %if.else.i.i
  call void @llvm.lifetime.end.p0(i64 16, ptr nonnull %_now.i.i)
  %policy_skip = getelementptr inbounds nuw i8, ptr %v, i64 152
  %6 = load ptr, ptr %policy_skip, align 8
  %tobool.not = icmp eq ptr %6, null
  br i1 %tobool.not, label %return, label %if.then

if.then:                                          ; preds = %trace_visit_policy_skip.exit
  %call = tail call zeroext i1 %6(ptr noundef nonnull %v, ptr noundef %name, i32 noundef %special_features) #10
  br label %return

return:                                           ; preds = %trace_visit_policy_skip.exit, %if.then
  %retval.0 = phi i1 [ %call, %if.then ], [ false, %trace_visit_policy_skip.exit ]
  ret i1 %retval.0
}